; Function Attrs: mustprogress nofree norecurse nosync nounwind sspstrong willreturn memory(argmem: read) uwtable
define hidden i64 @rb_io_buffer_type_size(ptr noundef readonly captures(none) %0) #3 {
  %2 = getelementptr inbounds nuw i8, ptr %0, i64 16
  %3 = load i32, ptr %2, align 8, !tbaa !15
  %.not = icmp eq i32 %3, 0
  br i1 %.not, label %8, label %4

4:                                                ; preds = %1
  %5 = getelementptr inbounds nuw i8, ptr %0, i64 8
  %6 = load i64, ptr %5, align 8, !tbaa !16
  %7 = add i64 %6, 32
  br label %8

8:                                                ; preds = %4, %1
  %.0 = phi i64 [ %7, %4 ], [ 32, %1 ]
  ret i64 %.0
}